(lp1
(lp2
I294
aI0
aI0
aI0
aa(lp3
I98
aI24
aI0
aI0
aa(lp4
I53
aI19
aI0
aI0
aa(lp5
I143
aI0
aI0
aI0
aa(lp6
I415
aI181
aI0
aI0
aa(lp7
I82
aI28
aI0
aI0
aa(lp8
I234
aI0
aI0
aI0
aa(lp9
I119
aI6
aI0
aI0
aa(lp10
I60
aI22
aI0
aI0
aa(lp11
I203
aI47
aI0
aI0
aa.