(lp1
(lp2
I209
aI75
aI0
aI0
aa(lp3
I186
aI56
aI0
aI0
aa(lp4
I261
aI69
aI0
aI0
aa(lp5
I482
aI8
aI0
aI0
aa(lp6
I96
aI0
aI0
aI0
aa(lp7
I50
aI0
aI0
aI0
aa(lp8
I169
aI0
aI0
aI0
aa(lp9
I228
aI0
aI0
aI0
aa(lp10
I52
aI0
aI0
aI0
aa(lp11
I90
aI0
aI0
aI0
aa.